; Function Attrs: inlinehint nounwind sspstrong uwtable
define internal fastcc noundef i32 @rb_long2int_inline(i64 noundef %0) unnamed_addr #8 {
  %2 = add i64 %0, 2147483648
  %.not = icmp ult i64 %2, 4294967296
  br i1 %.not, label %4, label %3

3:                                                ; preds = %1
  tail call void @rb_out_of_int(i64 noundef %0) #15
  unreachable

4:                                                ; preds = %1
  %5 = trunc i64 %0 to i32
  ret i32 %5
}